target datalayout = "e-m:e-p270:32:32-p271:32:32-p272:64:64-i64:64-i128:128-f80:128-n8:16:32:64-S128"
target triple = "x86_64-unknown-linux-gnu"

%class.btSoftRigidCollisionAlgorithm = type <{ %class.btCollisionAlgorithm, i8, [7 x i8] }>
%class.btCollisionAlgorithm = type { ptr, ptr }

; Function Attrs: mustprogress uwtable
define dso_local void @_ZN29btSoftRigidCollisionAlgorithmC2EP20btPersistentManifoldRK36btCollisionAlgorithmConstructionInfoPK24btCollisionObjectWrapperS7_b(ptr noundef nonnull align 8 dereferenceable(17) %this, ptr noundef %0, ptr noundef nonnull align 8 dereferenceable(16) %ci, ptr noundef %1, ptr noundef %2, i1 noundef zeroext %isSwapped) unnamed_addr #2 align 2 {
entry:
  %this.addr = alloca ptr, align 8
  %.addr = alloca ptr, align 8
  %ci.addr = alloca ptr, align 8
  %.addr1 = alloca ptr, align 8
  %.addr2 = alloca ptr, align 8
  %isSwapped.addr = alloca i8, align 1
  store ptr %this, ptr %this.addr, align 8
  store ptr %0, ptr %.addr, align 8
  store ptr %ci, ptr %ci.addr, align 8
  store ptr %1, ptr %.addr1, align 8
  store ptr %2, ptr %.addr2, align 8
  %frombool = zext i1 %isSwapped to i8
  store i8 %frombool, ptr %isSwapped.addr, align 1
  %this3 = load ptr, ptr %this.addr, align 8
  %3 = load ptr, ptr %ci.addr, align 8
  call void @_ZN20btCollisionAlgorithmC2ERK36btCollisionAlgorithmConstructionInfo(ptr noundef nonnull align 8 dereferenceable(16) %this3, ptr noundef nonnull align 8 dereferenceable(16) %3)
  store ptr getelementptr inbounds ({ [7 x ptr] }, ptr @_ZTV29btSoftRigidCollisionAlgorithm, i32 0, i32 0, i32 2), ptr %this3, align 8
  %m_isSwapped = getelementptr inbounds %class.btSoftRigidCollisionAlgorithm, ptr %this3, i32 0, i32 1
  %4 = load i8, ptr %isSwapped.addr, align 1
  %tobool = trunc i8 %4 to i1
  %frombool4 = zext i1 %tobool to i8
  store i8 %frombool4, ptr %m_isSwapped, align 8
  ret void
}